; Function Attrs: mustprogress uwtable
define internal void @_ZN12_GLOBAL__N_124TransformSelectorIndexes9TransformERSt6vectorINSt7__cxx1112basic_stringIcSt11char_traitsIcESaIcEEESaIS7_EERKSt8functionIFS7_RKS7_EE(ptr noundef nonnull align 8 dereferenceable(64) %0, ptr nocapture noundef nonnull readonly align 8 dereferenceable(24) %1, ptr noundef nonnull align 8 dereferenceable(32) %2) unnamed_addr #3 align 2 {
  %4 = alloca %"class.std::__cxx11::basic_string", align 8
  %5 = getelementptr inbounds i8, ptr %1, i64 8
  %6 = load ptr, ptr %5, align 8
  %7 = load ptr, ptr %1, align 8
  %8 = ptrtoint ptr %6 to i64
  %9 = ptrtoint ptr %7 to i64
  %10 = sub i64 %8, %9
  %11 = ashr exact i64 %10, 5
  %12 = load ptr, ptr %0, align 8
  %13 = getelementptr inbounds i8, ptr %12, i64 24
  %14 = load ptr, ptr %13, align 8
  %15 = tail call noundef zeroext i1 %14(ptr noundef nonnull align 8 dereferenceable(40) %0, i64 noundef %11)
  %16 = getelementptr inbounds i8, ptr %0, i64 40
  %17 = load ptr, ptr %16, align 8
  %18 = getelementptr inbounds i8, ptr %0, i64 48
  %19 = load ptr, ptr %18, align 8
  %.not11 = icmp eq ptr %17, %19
  br i1 %.not11, label %._crit_edge, label %.lr.ph

.lr.ph:                                           ; preds = %3
  %20 = getelementptr inbounds i8, ptr %2, i64 16
  %21 = getelementptr inbounds i8, ptr %2, i64 24
  br label %22

22:                                               ; preds = %.lr.ph, %_ZNKSt8functionIFNSt7__cxx1112basic_stringIcSt11char_traitsIcESaIcEEERKS5_EEclES7_.exit
  %.sroa.08.012 = phi ptr [ %17, %.lr.ph ], [ %32, %_ZNKSt8functionIFNSt7__cxx1112basic_stringIcSt11char_traitsIcESaIcEEERKS5_EEclES7_.exit ]
  %23 = load ptr, ptr %20, align 8, !noalias !289
  %.not.i.i = icmp eq ptr %23, null
  br i1 %.not.i.i, label %24, label %_ZNKSt8functionIFNSt7__cxx1112basic_stringIcSt11char_traitsIcESaIcEEERKS5_EEclES7_.exit

24:                                               ; preds = %22
  call void @_ZSt25__throw_bad_function_callv() #28, !noalias !289
  unreachable

_ZNKSt8functionIFNSt7__cxx1112basic_stringIcSt11char_traitsIcESaIcEEERKS5_EEclES7_.exit: ; preds = %22
  %25 = load ptr, ptr %1, align 8
  %26 = load i64, ptr %.sroa.08.012, align 8
  %27 = getelementptr inbounds %"class.std::__cxx11::basic_string", ptr %25, i64 %26
  %28 = load ptr, ptr %21, align 8, !noalias !289
  call void %28(ptr dead_on_unwind nonnull writable sret(%"class.std::__cxx11::basic_string") align 8 %4, ptr noundef nonnull align 8 dereferenceable(16) %2, ptr noundef nonnull align 8 dereferenceable(32) %27)
  %29 = load ptr, ptr %1, align 8
  %30 = getelementptr inbounds %"class.std::__cxx11::basic_string", ptr %29, i64 %26
  %31 = call noundef nonnull align 8 dereferenceable(32) ptr @_ZNSt7__cxx1112basic_stringIcSt11char_traitsIcESaIcEEaSEOS4_(ptr noundef nonnull align 8 dereferenceable(32) %30, ptr noundef nonnull align 8 dereferenceable(32) %4) #27
  call void @_ZNSt7__cxx1112basic_stringIcSt11char_traitsIcESaIcEED1Ev(ptr noundef nonnull align 8 dereferenceable(32) %4) #27
  %32 = getelementptr inbounds i8, ptr %.sroa.08.012, i64 8
  %.not = icmp eq ptr %32, %19
  br i1 %.not, label %._crit_edge, label %22

._crit_edge:                                      ; preds = %_ZNKSt8functionIFNSt7__cxx1112basic_stringIcSt11char_traitsIcESaIcEEERKS5_EEclES7_.exit, %3
  ret void
}